target datalayout = "e-m:e-p270:32:32-p271:32:32-p272:64:64-i64:64-i128:128-f80:128-n8:16:32:64-S128"
target triple = "x86_64-unknown-linux-gnu"

%"class.arrow::Status" = type { ptr }
%"class.arrow::Result" = type <{ %"class.arrow::Status", %"class.arrow::internal::AlignedStorage", [4 x i8] }>
%"class.arrow::internal::AlignedStorage" = type { %"union.std::aligned_storage<4, 4>::type" }
%"union.std::aligned_storage<4, 4>::type" = type { [4 x i8] }

@.str = private unnamed_addr constant [13 x i8] c"uncompressed\00", align 1
@.str.1 = private unnamed_addr constant [7 x i8] c"snappy\00", align 1
@.str.2 = private unnamed_addr constant [5 x i8] c"gzip\00", align 1
@.str.3 = private unnamed_addr constant [4 x i8] c"lzo\00", align 1
@.str.4 = private unnamed_addr constant [7 x i8] c"brotli\00", align 1
@.str.5 = private unnamed_addr constant [8 x i8] c"lz4_raw\00", align 1
@.str.6 = private unnamed_addr constant [4 x i8] c"lz4\00", align 1
@.str.7 = private unnamed_addr constant [11 x i8] c"lz4_hadoop\00", align 1
@.str.8 = private unnamed_addr constant [5 x i8] c"zstd\00", align 1
@.str.9 = private unnamed_addr constant [4 x i8] c"bz2\00", align 1
@.str.11 = private unnamed_addr constant [32 x i8] c"Unrecognized compression type: \00", align 1

; Function Attrs: mustprogress nounwind uwtable
define linkonce_odr void @_ZN5arrow8internal14AlignedStorageINS_11Compression4typeEE9constructIJS3_EEEvDpOT_(ptr noundef nonnull align 4 dereferenceable(4) %this, ptr noundef nonnull align 4 dereferenceable(4) %args) #0 comdat align 2 {
entry:
  %this.addr = alloca ptr, align 8
  %args.addr = alloca ptr, align 8
  store ptr %this, ptr %this.addr, align 8
  store ptr %args, ptr %args.addr, align 8
  %this1 = load ptr, ptr %this.addr, align 8
  %data_ = getelementptr inbounds %"class.arrow::internal::AlignedStorage", ptr %this1, i32 0, i32 0
  %0 = load ptr, ptr %args.addr, align 8
  %1 = load i32, ptr %0, align 4
  store i32 %1, ptr %data_, align 4
  ret void
}

; Function Attrs: mustprogress nounwind uwtable
define linkonce_odr void @_ZN5arrow6ResultINS_11Compression4typeEE14ConstructValueIS2_EEvOT_(ptr noundef nonnull align 8 dereferenceable(12) %this, ptr noundef nonnull align 4 dereferenceable(4) %u) #0 comdat align 2 {
entry:
  %this.addr = alloca ptr, align 8
  %u.addr = alloca ptr, align 8
  store ptr %this, ptr %this.addr, align 8
  store ptr %u, ptr %u.addr, align 8
  %this1 = load ptr, ptr %this.addr, align 8
  %storage_ = getelementptr inbounds %"class.arrow::Result", ptr %this1, i32 0, i32 1
  %0 = load ptr, ptr %u.addr, align 8
  call void @_ZN5arrow8internal14AlignedStorageINS_11Compression4typeEE9constructIJS3_EEEvDpOT_(ptr noundef nonnull align 4 dereferenceable(4) %storage_, ptr noundef nonnull align 4 dereferenceable(4) %0) #2
  ret void
}

; Function Attrs: mustprogress nounwind uwtable
define linkonce_odr void @_ZN5arrow6StatusC2Ev(ptr noundef nonnull align 8 dereferenceable(8) %this) unnamed_addr #0 comdat align 2 {
entry:
  %this.addr = alloca ptr, align 8
  store ptr %this, ptr %this.addr, align 8
  %this1 = load ptr, ptr %this.addr, align 8
  %state_ = getelementptr inbounds %"class.arrow::Status", ptr %this1, i32 0, i32 0
  store ptr null, ptr %state_, align 8
  ret void
}

; Function Attrs: mustprogress uwtable
define linkonce_odr void @_ZN5arrow6Status7InvalidIJRA32_KcRKNSt7__cxx1112basic_stringIcSt11char_traitsIcESaIcEEEEEES0_DpOT_(ptr noalias sret(%"class.arrow::Status") align 8 %agg.result, ptr noundef nonnull align 1 dereferenceable(32) %args, ptr noundef nonnull align 8 dereferenceable(32) %args1) #1 comdat align 2 {
entry:
  %result.ptr = alloca ptr, align 8
  %args.addr = alloca ptr, align 8
  %args.addr2 = alloca ptr, align 8
  store ptr %agg.result, ptr %result.ptr, align 8
  store ptr %args, ptr %args.addr, align 8
  store ptr %args1, ptr %args.addr2, align 8
  %0 = load ptr, ptr %args.addr, align 8
  %1 = load ptr, ptr %args.addr2, align 8
  call void @_ZN5arrow6Status8FromArgsIJRA32_KcRKNSt7__cxx1112basic_stringIcSt11char_traitsIcESaIcEEEEEES0_NS_10StatusCodeEDpOT_(ptr sret(%"class.arrow::Status") align 8 %agg.result, i8 noundef signext 4, ptr noundef nonnull align 1 dereferenceable(32) %0, ptr noundef nonnull align 8 dereferenceable(32) %1)
  ret void
}

; Function Attrs: mustprogress nounwind uwtable
define linkonce_odr void @_ZN5arrow6ResultINS_11Compression4typeEEC2EOS2_(ptr noundef nonnull align 8 dereferenceable(12) %this, ptr noundef nonnull align 4 dereferenceable(4) %value) unnamed_addr #0 comdat align 2 {
entry:
  %this.addr = alloca ptr, align 8
  %value.addr = alloca ptr, align 8
  store ptr %this, ptr %this.addr, align 8
  store ptr %value, ptr %value.addr, align 8
  %this1 = load ptr, ptr %this.addr, align 8
  %status_ = getelementptr inbounds %"class.arrow::Result", ptr %this1, i32 0, i32 0
  call void @_ZN5arrow6StatusC2Ev(ptr noundef nonnull align 8 dereferenceable(8) %status_) #2
  %0 = load ptr, ptr %value.addr, align 8
  call void @_ZN5arrow6ResultINS_11Compression4typeEE14ConstructValueIS2_EEvOT_(ptr noundef nonnull align 8 dereferenceable(12) %this1, ptr noundef nonnull align 4 dereferenceable(4) %0) #2
  ret void
}

; Function Attrs: mustprogress nounwind uwtable
define linkonce_odr noundef zeroext i1 @_ZSteqIcSt11char_traitsIcESaIcEEbRKNSt7__cxx1112basic_stringIT_T0_T1_EEPKS5_(ptr noundef nonnull align 8 dereferenceable(32) %__lhs, ptr noundef %__rhs) #0 comdat {
entry:
  %__lhs.addr = alloca ptr, align 8
  %__rhs.addr = alloca ptr, align 8
  store ptr %__lhs, ptr %__lhs.addr, align 8
  store ptr %__rhs, ptr %__rhs.addr, align 8
  %0 = load ptr, ptr %__lhs.addr, align 8
  %1 = load ptr, ptr %__rhs.addr, align 8
  %call = call noundef i32 @_ZNKSt7__cxx1112basic_stringIcSt11char_traitsIcESaIcEE7compareEPKc(ptr noundef nonnull align 8 dereferenceable(32) %0, ptr noundef %1) #2
  %cmp = icmp eq i32 %call, 0
  ret i1 %cmp
}

; Function Attrs: mustprogress uwtable
define void @_ZN5arrow4util5Codec18GetCompressionTypeERKNSt7__cxx1112basic_stringIcSt11char_traitsIcESaIcEEE(ptr noalias sret(%"class.arrow::Result") align 8 %agg.result, ptr noundef nonnull align 8 dereferenceable(32) %name) #1 align 2 {
entry:
  %result.ptr = alloca ptr, align 8
  %name.addr = alloca ptr, align 8
  %ref.tmp = alloca i32, align 4
  %ref.tmp3 = alloca i32, align 4
  %ref.tmp7 = alloca i32, align 4
  %ref.tmp11 = alloca i32, align 4
  %ref.tmp15 = alloca i32, align 4
  %ref.tmp19 = alloca i32, align 4
  %ref.tmp23 = alloca i32, align 4
  %ref.tmp27 = alloca i32, align 4
  %ref.tmp31 = alloca i32, align 4
  %ref.tmp35 = alloca i32, align 4
  %ref.tmp37 = alloca %"class.arrow::Status", align 8
  store ptr %agg.result, ptr %result.ptr, align 8
  store ptr %name, ptr %name.addr, align 8
  %0 = load ptr, ptr %name.addr, align 8
  %call = call noundef zeroext i1 @_ZSteqIcSt11char_traitsIcESaIcEEbRKNSt7__cxx1112basic_stringIT_T0_T1_EEPKS5_(ptr noundef nonnull align 8 dereferenceable(32) %0, ptr noundef @.str)
  br i1 %call, label %if.then, label %if.else

if.then:                                          ; preds = %entry
  store i32 0, ptr %ref.tmp, align 4
  call void @_ZN5arrow6ResultINS_11Compression4typeEEC2EOS2_(ptr noundef nonnull align 8 dereferenceable(12) %agg.result, ptr noundef nonnull align 4 dereferenceable(4) %ref.tmp) #2
  br label %return

if.else:                                          ; preds = %entry
  %1 = load ptr, ptr %name.addr, align 8
  %call1 = call noundef zeroext i1 @_ZSteqIcSt11char_traitsIcESaIcEEbRKNSt7__cxx1112basic_stringIT_T0_T1_EEPKS5_(ptr noundef nonnull align 8 dereferenceable(32) %1, ptr noundef @.str.2)
  br i1 %call1, label %if.then2, label %if.else4

if.then2:                                         ; preds = %if.else
  store i32 2, ptr %ref.tmp3, align 4
  call void @_ZN5arrow6ResultINS_11Compression4typeEEC2EOS2_(ptr noundef nonnull align 8 dereferenceable(12) %agg.result, ptr noundef nonnull align 4 dereferenceable(4) %ref.tmp3) #2
  br label %return

if.else4:                                         ; preds = %if.else
  %2 = load ptr, ptr %name.addr, align 8
  %call5 = call noundef zeroext i1 @_ZSteqIcSt11char_traitsIcESaIcEEbRKNSt7__cxx1112basic_stringIT_T0_T1_EEPKS5_(ptr noundef nonnull align 8 dereferenceable(32) %2, ptr noundef @.str.1)
  br i1 %call5, label %if.then6, label %if.else8

if.then6:                                         ; preds = %if.else4
  store i32 1, ptr %ref.tmp7, align 4
  call void @_ZN5arrow6ResultINS_11Compression4typeEEC2EOS2_(ptr noundef nonnull align 8 dereferenceable(12) %agg.result, ptr noundef nonnull align 4 dereferenceable(4) %ref.tmp7) #2
  br label %return

if.else8:                                         ; preds = %if.else4
  %3 = load ptr, ptr %name.addr, align 8
  %call9 = call noundef zeroext i1 @_ZSteqIcSt11char_traitsIcESaIcEEbRKNSt7__cxx1112basic_stringIT_T0_T1_EEPKS5_(ptr noundef nonnull align 8 dereferenceable(32) %3, ptr noundef @.str.3)
  br i1 %call9, label %if.then10, label %if.else12

if.then10:                                        ; preds = %if.else8
  store i32 7, ptr %ref.tmp11, align 4
  call void @_ZN5arrow6ResultINS_11Compression4typeEEC2EOS2_(ptr noundef nonnull align 8 dereferenceable(12) %agg.result, ptr noundef nonnull align 4 dereferenceable(4) %ref.tmp11) #2
  br label %return

if.else12:                                        ; preds = %if.else8
  %4 = load ptr, ptr %name.addr, align 8
  %call13 = call noundef zeroext i1 @_ZSteqIcSt11char_traitsIcESaIcEEbRKNSt7__cxx1112basic_stringIT_T0_T1_EEPKS5_(ptr noundef nonnull align 8 dereferenceable(32) %4, ptr noundef @.str.4)
  br i1 %call13, label %if.then14, label %if.else16

if.then14:                                        ; preds = %if.else12
  store i32 3, ptr %ref.tmp15, align 4
  call void @_ZN5arrow6ResultINS_11Compression4typeEEC2EOS2_(ptr noundef nonnull align 8 dereferenceable(12) %agg.result, ptr noundef nonnull align 4 dereferenceable(4) %ref.tmp15) #2
  br label %return

if.else16:                                        ; preds = %if.else12
  %5 = load ptr, ptr %name.addr, align 8
  %call17 = call noundef zeroext i1 @_ZSteqIcSt11char_traitsIcESaIcEEbRKNSt7__cxx1112basic_stringIT_T0_T1_EEPKS5_(ptr noundef nonnull align 8 dereferenceable(32) %5, ptr noundef @.str.5)
  br i1 %call17, label %if.then18, label %if.else20

if.then18:                                        ; preds = %if.else16
  store i32 5, ptr %ref.tmp19, align 4
  call void @_ZN5arrow6ResultINS_11Compression4typeEEC2EOS2_(ptr noundef nonnull align 8 dereferenceable(12) %agg.result, ptr noundef nonnull align 4 dereferenceable(4) %ref.tmp19) #2
  br label %return

if.else20:                                        ; preds = %if.else16
  %6 = load ptr, ptr %name.addr, align 8
  %call21 = call noundef zeroext i1 @_ZSteqIcSt11char_traitsIcESaIcEEbRKNSt7__cxx1112basic_stringIT_T0_T1_EEPKS5_(ptr noundef nonnull align 8 dereferenceable(32) %6, ptr noundef @.str.6)
  br i1 %call21, label %if.then22, label %if.else24

if.then22:                                        ; preds = %if.else20
  store i32 6, ptr %ref.tmp23, align 4
  call void @_ZN5arrow6ResultINS_11Compression4typeEEC2EOS2_(ptr noundef nonnull align 8 dereferenceable(12) %agg.result, ptr noundef nonnull align 4 dereferenceable(4) %ref.tmp23) #2
  br label %return

if.else24:                                        ; preds = %if.else20
  %7 = load ptr, ptr %name.addr, align 8
  %call25 = call noundef zeroext i1 @_ZSteqIcSt11char_traitsIcESaIcEEbRKNSt7__cxx1112basic_stringIT_T0_T1_EEPKS5_(ptr noundef nonnull align 8 dereferenceable(32) %7, ptr noundef @.str.7)
  br i1 %call25, label %if.then26, label %if.else28

if.then26:                                        ; preds = %if.else24
  store i32 9, ptr %ref.tmp27, align 4
  call void @_ZN5arrow6ResultINS_11Compression4typeEEC2EOS2_(ptr noundef nonnull align 8 dereferenceable(12) %agg.result, ptr noundef nonnull align 4 dereferenceable(4) %ref.tmp27) #2
  br label %return

if.else28:                                        ; preds = %if.else24
  %8 = load ptr, ptr %name.addr, align 8
  %call29 = call noundef zeroext i1 @_ZSteqIcSt11char_traitsIcESaIcEEbRKNSt7__cxx1112basic_stringIT_T0_T1_EEPKS5_(ptr noundef nonnull align 8 dereferenceable(32) %8, ptr noundef @.str.8)
  br i1 %call29, label %if.then30, label %if.else32

if.then30:                                        ; preds = %if.else28
  store i32 4, ptr %ref.tmp31, align 4
  call void @_ZN5arrow6ResultINS_11Compression4typeEEC2EOS2_(ptr noundef nonnull align 8 dereferenceable(12) %agg.result, ptr noundef nonnull align 4 dereferenceable(4) %ref.tmp31) #2
  br label %return

if.else32:                                        ; preds = %if.else28
  %9 = load ptr, ptr %name.addr, align 8
  %call33 = call noundef zeroext i1 @_ZSteqIcSt11char_traitsIcESaIcEEbRKNSt7__cxx1112basic_stringIT_T0_T1_EEPKS5_(ptr noundef nonnull align 8 dereferenceable(32) %9, ptr noundef @.str.9)
  br i1 %call33, label %if.then34, label %if.else36

if.then34:                                        ; preds = %if.else32
  store i32 8, ptr %ref.tmp35, align 4
  call void @_ZN5arrow6ResultINS_11Compression4typeEEC2EOS2_(ptr noundef nonnull align 8 dereferenceable(12) %agg.result, ptr noundef nonnull align 4 dereferenceable(4) %ref.tmp35) #2
  br label %return

if.else36:                                        ; preds = %if.else32
  %10 = load ptr, ptr %name.addr, align 8
  call void @_ZN5arrow6Status7InvalidIJRA32_KcRKNSt7__cxx1112basic_stringIcSt11char_traitsIcESaIcEEEEEES0_DpOT_(ptr sret(%"class.arrow::Status") align 8 %ref.tmp37, ptr noundef nonnull align 1 dereferenceable(32) @.str.11, ptr noundef nonnull align 8 dereferenceable(32) %10)
  call void @_ZN5arrow6ResultINS_11Compression4typeEEC2ERKNS_6StatusE(ptr noundef nonnull align 8 dereferenceable(12) %agg.result, ptr noundef nonnull align 8 dereferenceable(8) %ref.tmp37) #2
  call void @_ZN5arrow6StatusD2Ev(ptr noundef nonnull align 8 dereferenceable(8) %ref.tmp37) #2
  br label %return

return:                                           ; preds = %if.else36, %if.then34, %if.then30, %if.then26, %if.then22, %if.then18, %if.then14, %if.then10, %if.then6, %if.then2, %if.then
  ret void
}