; Function Attrs: mustprogress uwtable
define void @_ZN5arrow4util5Codec18GetCompressionTypeERKNSt7__cxx1112basic_stringIcSt11char_traitsIcESaIcEEE(ptr noalias sret(%"class.arrow::Result") align 8 %agg.result, ptr noundef nonnull align 8 dereferenceable(32) %name) local_unnamed_addr #2 align 2 {
entry:
  %ref.tmp37 = alloca %"class.arrow::Status", align 8
  %call.i = tail call noundef i32 @_ZNKSt7__cxx1112basic_stringIcSt11char_traitsIcESaIcEE7compareEPKc(ptr noundef nonnull align 8 dereferenceable(32) %name, ptr noundef nonnull @.str) #16
  %cmp.i = icmp eq i32 %call.i, 0
  br i1 %cmp.i, label %if.then, label %if.else

if.then:                                          ; preds = %entry
  store ptr null, ptr %agg.result, align 8
  %storage_.i.i = getelementptr inbounds i8, ptr %agg.result, i64 8
  store i32 0, ptr %storage_.i.i, align 8
  br label %return

if.else:                                          ; preds = %entry
  %call.i11 = tail call noundef i32 @_ZNKSt7__cxx1112basic_stringIcSt11char_traitsIcESaIcEE7compareEPKc(ptr noundef nonnull align 8 dereferenceable(32) %name, ptr noundef nonnull @.str.2) #16
  %cmp.i12 = icmp eq i32 %call.i11, 0
  br i1 %cmp.i12, label %if.then2, label %if.else4

if.then2:                                         ; preds = %if.else
  store ptr null, ptr %agg.result, align 8
  %storage_.i.i13 = getelementptr inbounds i8, ptr %agg.result, i64 8
  store i32 2, ptr %storage_.i.i13, align 8
  br label %return

if.else4:                                         ; preds = %if.else
  %call.i14 = tail call noundef i32 @_ZNKSt7__cxx1112basic_stringIcSt11char_traitsIcESaIcEE7compareEPKc(ptr noundef nonnull align 8 dereferenceable(32) %name, ptr noundef nonnull @.str.1) #16
  %cmp.i15 = icmp eq i32 %call.i14, 0
  br i1 %cmp.i15, label %if.then6, label %if.else8

if.then6:                                         ; preds = %if.else4
  store ptr null, ptr %agg.result, align 8
  %storage_.i.i16 = getelementptr inbounds i8, ptr %agg.result, i64 8
  store i32 1, ptr %storage_.i.i16, align 8
  br label %return

if.else8:                                         ; preds = %if.else4
  %call.i17 = tail call noundef i32 @_ZNKSt7__cxx1112basic_stringIcSt11char_traitsIcESaIcEE7compareEPKc(ptr noundef nonnull align 8 dereferenceable(32) %name, ptr noundef nonnull @.str.3) #16
  %cmp.i18 = icmp eq i32 %call.i17, 0
  br i1 %cmp.i18, label %if.then10, label %if.else12

if.then10:                                        ; preds = %if.else8
  store ptr null, ptr %agg.result, align 8
  %storage_.i.i19 = getelementptr inbounds i8, ptr %agg.result, i64 8
  store i32 7, ptr %storage_.i.i19, align 8
  br label %return

if.else12:                                        ; preds = %if.else8
  %call.i20 = tail call noundef i32 @_ZNKSt7__cxx1112basic_stringIcSt11char_traitsIcESaIcEE7compareEPKc(ptr noundef nonnull align 8 dereferenceable(32) %name, ptr noundef nonnull @.str.4) #16
  %cmp.i21 = icmp eq i32 %call.i20, 0
  br i1 %cmp.i21, label %if.then14, label %if.else16

if.then14:                                        ; preds = %if.else12
  store ptr null, ptr %agg.result, align 8
  %storage_.i.i22 = getelementptr inbounds i8, ptr %agg.result, i64 8
  store i32 3, ptr %storage_.i.i22, align 8
  br label %return

if.else16:                                        ; preds = %if.else12
  %call.i23 = tail call noundef i32 @_ZNKSt7__cxx1112basic_stringIcSt11char_traitsIcESaIcEE7compareEPKc(ptr noundef nonnull align 8 dereferenceable(32) %name, ptr noundef nonnull @.str.5) #16
  %cmp.i24 = icmp eq i32 %call.i23, 0
  br i1 %cmp.i24, label %if.then18, label %if.else20

if.then18:                                        ; preds = %if.else16
  store ptr null, ptr %agg.result, align 8
  %storage_.i.i25 = getelementptr inbounds i8, ptr %agg.result, i64 8
  store i32 5, ptr %storage_.i.i25, align 8
  br label %return

if.else20:                                        ; preds = %if.else16
  %call.i26 = tail call noundef i32 @_ZNKSt7__cxx1112basic_stringIcSt11char_traitsIcESaIcEE7compareEPKc(ptr noundef nonnull align 8 dereferenceable(32) %name, ptr noundef nonnull @.str.6) #16
  %cmp.i27 = icmp eq i32 %call.i26, 0
  br i1 %cmp.i27, label %if.then22, label %if.else24

if.then22:                                        ; preds = %if.else20
  store ptr null, ptr %agg.result, align 8
  %storage_.i.i28 = getelementptr inbounds i8, ptr %agg.result, i64 8
  store i32 6, ptr %storage_.i.i28, align 8
  br label %return

if.else24:                                        ; preds = %if.else20
  %call.i29 = tail call noundef i32 @_ZNKSt7__cxx1112basic_stringIcSt11char_traitsIcESaIcEE7compareEPKc(ptr noundef nonnull align 8 dereferenceable(32) %name, ptr noundef nonnull @.str.7) #16
  %cmp.i30 = icmp eq i32 %call.i29, 0
  br i1 %cmp.i30, label %if.then26, label %if.else28

if.then26:                                        ; preds = %if.else24
  store ptr null, ptr %agg.result, align 8
  %storage_.i.i31 = getelementptr inbounds i8, ptr %agg.result, i64 8
  store i32 9, ptr %storage_.i.i31, align 8
  br label %return

if.else28:                                        ; preds = %if.else24
  %call.i32 = tail call noundef i32 @_ZNKSt7__cxx1112basic_stringIcSt11char_traitsIcESaIcEE7compareEPKc(ptr noundef nonnull align 8 dereferenceable(32) %name, ptr noundef nonnull @.str.8) #16
  %cmp.i33 = icmp eq i32 %call.i32, 0
  br i1 %cmp.i33, label %if.then30, label %if.else32

if.then30:                                        ; preds = %if.else28
  store ptr null, ptr %agg.result, align 8
  %storage_.i.i34 = getelementptr inbounds i8, ptr %agg.result, i64 8
  store i32 4, ptr %storage_.i.i34, align 8
  br label %return

if.else32:                                        ; preds = %if.else28
  %call.i35 = tail call noundef i32 @_ZNKSt7__cxx1112basic_stringIcSt11char_traitsIcESaIcEE7compareEPKc(ptr noundef nonnull align 8 dereferenceable(32) %name, ptr noundef nonnull @.str.9) #16
  %cmp.i36 = icmp eq i32 %call.i35, 0
  br i1 %cmp.i36, label %if.then34, label %if.else36

if.then34:                                        ; preds = %if.else32
  store ptr null, ptr %agg.result, align 8
  %storage_.i.i37 = getelementptr inbounds i8, ptr %agg.result, i64 8
  store i32 8, ptr %storage_.i.i37, align 8
  br label %return

if.else36:                                        ; preds = %if.else32
  call void @_ZN5arrow6Status8FromArgsIJRA32_KcRKNSt7__cxx1112basic_stringIcSt11char_traitsIcESaIcEEEEEES0_NS_10StatusCodeEDpOT_(ptr nonnull sret(%"class.arrow::Status") align 8 %ref.tmp37, i8 noundef signext 4, ptr noundef nonnull align 1 dereferenceable(32) @.str.11, ptr noundef nonnull align 8 dereferenceable(32) %name)
  call void @_ZN5arrow6ResultINS_11Compression4typeEEC2ERKNS_6StatusE(ptr noundef nonnull align 8 dereferenceable(12) %agg.result, ptr noundef nonnull align 8 dereferenceable(8) %ref.tmp37) #16
  call void @_ZN5arrow6StatusD2Ev(ptr noundef nonnull align 8 dereferenceable(8) %ref.tmp37) #16
  br label %return

return:                                           ; preds = %if.else36, %if.then34, %if.then30, %if.then26, %if.then22, %if.then18, %if.then14, %if.then10, %if.then6, %if.then2, %if.then
  ret void
}